; Function Attrs: mustprogress uwtable
define noundef i32 @_ZNK6casadi7BSpline4evalEPPKdPPdPxS4_(ptr nocapture noundef nonnull readonly align 8 dereferenceable(256) %0, ptr nocapture noundef readonly %1, ptr nocapture noundef readonly %2, ptr noundef %3, ptr noundef %4) unnamed_addr #3 align 2 {
  %6 = load ptr, ptr %2, align 8
  %.not = icmp eq ptr %6, null
  br i1 %.not, label %49, label %7

7:                                                ; preds = %5
  %8 = getelementptr inbounds i8, ptr %0, i64 136
  %9 = load i64, ptr %8, align 8
  %10 = icmp sgt i64 %9, 0
  br i1 %10, label %.lr.ph.preheader.i, label %_ZN6casadi12casadi_clearIdEEvPT_x.exit

.lr.ph.preheader.i:                               ; preds = %7
  %11 = shl nuw i64 %9, 3
  tail call void @llvm.memset.p0.i64(ptr nonnull align 8 %6, i8 0, i64 %11, i1 false)
  %.pre = load ptr, ptr %2, align 8
  %.pre12 = load i64, ptr %8, align 8
  br label %_ZN6casadi12casadi_clearIdEEvPT_x.exit

_ZN6casadi12casadi_clearIdEEvPT_x.exit:           ; preds = %7, %.lr.ph.preheader.i
  %12 = phi i64 [ %9, %7 ], [ %.pre12, %.lr.ph.preheader.i ]
  %13 = phi ptr [ %6, %7 ], [ %.pre, %.lr.ph.preheader.i ]
  %14 = getelementptr inbounds i8, ptr %0, i64 112
  %15 = getelementptr inbounds i8, ptr %0, i64 120
  %16 = load ptr, ptr %15, align 8
  %17 = load ptr, ptr %14, align 8
  %18 = ptrtoint ptr %16 to i64
  %19 = ptrtoint ptr %17 to i64
  %20 = sub i64 %18, %19
  %21 = ashr exact i64 %20, 3
  %22 = getelementptr inbounds i8, ptr %0, i64 64
  %23 = load ptr, ptr %22, align 8
  %24 = getelementptr inbounds i8, ptr %0, i64 72
  %25 = load ptr, ptr %24, align 8
  %26 = icmp eq ptr %23, %25
  %spec.select.i = select i1 %26, ptr null, ptr %23
  %27 = getelementptr inbounds i8, ptr %0, i64 88
  %28 = load ptr, ptr %27, align 8
  %29 = getelementptr inbounds i8, ptr %0, i64 96
  %30 = load ptr, ptr %29, align 8
  %31 = icmp eq ptr %28, %30
  %spec.select.i7 = select i1 %31, ptr null, ptr %28
  %32 = icmp eq ptr %17, %16
  %spec.select.i8 = select i1 %32, ptr null, ptr %17
  %33 = getelementptr inbounds i8, ptr %0, i64 168
  %34 = load ptr, ptr %33, align 8
  %35 = getelementptr inbounds i8, ptr %0, i64 176
  %36 = load ptr, ptr %35, align 8
  %37 = icmp eq ptr %34, %36
  %spec.select.i9 = select i1 %37, ptr null, ptr %34
  %38 = getelementptr inbounds i8, ptr %0, i64 232
  %39 = load ptr, ptr %38, align 8
  %40 = getelementptr inbounds i8, ptr %0, i64 240
  %41 = load ptr, ptr %40, align 8
  %42 = icmp eq ptr %39, %41
  %spec.select.i10 = select i1 %42, ptr null, ptr %39
  %43 = load ptr, ptr %1, align 8
  %44 = getelementptr inbounds i8, ptr %0, i64 144
  %45 = load ptr, ptr %44, align 8
  %46 = getelementptr inbounds i8, ptr %0, i64 152
  %47 = load ptr, ptr %46, align 8
  %48 = icmp eq ptr %45, %47
  %spec.select.i11 = select i1 %48, ptr null, ptr %45
  tail call void @_ZN6casadi19casadi_nd_boor_evalIdEEvPT_xPKS1_PKxS6_S6_S4_xS4_S6_PxS2_(ptr noundef %13, i64 noundef %21, ptr noundef %spec.select.i, ptr noundef %spec.select.i7, ptr noundef %spec.select.i8, ptr noundef %spec.select.i9, ptr noundef %spec.select.i10, i64 noundef %12, ptr noundef %43, ptr noundef %spec.select.i11, ptr noundef %3, ptr noundef %4)
  br label %49

49:                                               ; preds = %5, %_ZN6casadi12casadi_clearIdEEvPT_x.exit
  ret i32 0
}